; ModuleID = '25/968.cpp'
source_filename = "25/968.cpp"
target datalayout = "e-m:e-p270:32:32-p271:32:32-p272:64:64-i64:64-f80:128-n8:16:32:64-S128"
target triple = "x86_64-pc-linux-gnu"

%"class.std::ios_base::Init" = type { i8 }
%"class.std::basic_istream" = type { i32 (...)**, i64, %"class.std::basic_ios" }
%"class.std::basic_ios" = type { %"class.std::ios_base", %"class.std::basic_ostream"*, i8, i8, %"class.std::basic_streambuf"*, %"class.std::ctype"*, %"class.std::num_put"*, %"class.std::num_get"* }
%"class.std::ios_base" = type { i32 (...)**, i64, i64, i32, i32, i32, %"struct.std::ios_base::_Callback_list"*, %"struct.std::ios_base::_Words", [8 x %"struct.std::ios_base::_Words"], i32, %"struct.std::ios_base::_Words"*, %"class.std::locale" }
%"struct.std::ios_base::_Callback_list" = type { %"struct.std::ios_base::_Callback_list"*, void (i32, %"class.std::ios_base"*, i32)*, i32, i32 }
%"struct.std::ios_base::_Words" = type { i8*, i64 }
%"class.std::locale" = type { %"class.std::locale::_Impl"* }
%"class.std::locale::_Impl" = type { i32, %"class.std::locale::facet"**, i64, %"class.std::locale::facet"**, i8** }
%"class.std::locale::facet" = type <{ i32 (...)**, i32, [4 x i8] }>
%"class.std::basic_ostream" = type { i32 (...)**, %"class.std::basic_ios" }
%"class.std::basic_streambuf" = type { i32 (...)**, i8*, i8*, i8*, i8*, i8*, i8*, %"class.std::locale" }
%"class.std::ctype" = type <{ %"class.std::locale::facet.base", [4 x i8], %struct.__locale_struct*, i8, [7 x i8], i32*, i32*, i16*, i8, [256 x i8], [256 x i8], i8, [6 x i8] }>
%"class.std::locale::facet.base" = type <{ i32 (...)**, i32 }>
%struct.__locale_struct = type { [13 x %struct.__locale_data*], i16*, i32*, i32*, [13 x i8*] }
%struct.__locale_data = type opaque
%"class.std::num_put" = type { %"class.std::locale::facet.base", [4 x i8] }
%"class.std::num_get" = type { %"class.std::locale::facet.base", [4 x i8] }

@_ZStL8__ioinit = internal global %"class.std::ios_base::Init" zeroinitializer, align 1
@__dso_handle = external hidden global i8
@_ZSt3cin = external dso_local global %"class.std::basic_istream", align 8
@_ZSt4cout = external dso_local global %"class.std::basic_ostream", align 8
@llvm.global_ctors = appending global [1 x { i32, void ()*, i8* }] [{ i32, void ()*, i8* } { i32 65535, void ()* @_GLOBAL__sub_I_968.cpp, i8* null }]

; Function Attrs: noinline uwtable
define internal void @__cxx_global_var_init() #0 section ".text.startup" {
  call void @_ZNSt8ios_base4InitC1Ev(%"class.std::ios_base::Init"* @_ZStL8__ioinit)
  %1 = call i32 @__cxa_atexit(void (i8*)* bitcast (void (%"class.std::ios_base::Init"*)* @_ZNSt8ios_base4InitD1Ev to void (i8*)*), i8* getelementptr inbounds (%"class.std::ios_base::Init", %"class.std::ios_base::Init"* @_ZStL8__ioinit, i32 0, i32 0), i8* @__dso_handle) #3
  ret void
}

declare dso_local void @_ZNSt8ios_base4InitC1Ev(%"class.std::ios_base::Init"*) unnamed_addr #1

; Function Attrs: nounwind
declare dso_local void @_ZNSt8ios_base4InitD1Ev(%"class.std::ios_base::Init"*) unnamed_addr #2

; Function Attrs: nounwind
declare dso_local i32 @__cxa_atexit(void (i8*)*, i8*, i8*) #3

; Function Attrs: noinline norecurse uwtable
define dso_local i32 @main() #4 {
  %1 = alloca i32, align 4
  %2 = alloca i32, align 4
  %3 = alloca i32, align 4
  %4 = alloca i32, align 4
  %5 = alloca i32, align 4
  %6 = alloca [50 x i32], align 16
  store i32 0, i32* %1, align 4
  %7 = bitcast [50 x i32]* %6 to i8*
  call void @llvm.memset.p0i8.i64(i8* align 16 %7, i8 0, i64 200, i1 false)
  %8 = call dereferenceable(280) %"class.std::basic_istream"* @_ZNSirsERi(%"class.std::basic_istream"* @_ZSt3cin, i32* dereferenceable(4) %2)
  %9 = getelementptr inbounds [50 x i32], [50 x i32]* %6, i64 0, i64 0
  store i32 1, i32* %9, align 16
  %10 = getelementptr inbounds [50 x i32], [50 x i32]* %6, i64 0, i64 1
  store i32 1, i32* %10, align 4
  store i32 1, i32* %3, align 4
  br label %11

11:                                               ; preds = %65, %0
  %12 = load i32, i32* %3, align 4
  %13 = load i32, i32* %2, align 4
  %14 = icmp sle i32 %12, %13
  br i1 %14, label %15, label %68

15:                                               ; preds = %11
  store i32 0, i32* %5, align 4
  store i32 1, i32* %4, align 4
  br label %16

16:                                               ; preds = %45, %15
  %17 = load i32, i32* %4, align 4
  %18 = getelementptr inbounds [50 x i32], [50 x i32]* %6, i64 0, i64 0
  %19 = load i32, i32* %18, align 16
  %20 = icmp sle i32 %17, %19
  br i1 %20, label %21, label %48

21:                                               ; preds = %16
  %22 = load i32, i32* %4, align 4
  %23 = sext i32 %22 to i64
  %24 = getelementptr inbounds [50 x i32], [50 x i32]* %6, i64 0, i64 %23
  %25 = load i32, i32* %24, align 4
  %26 = mul nsw i32 %25, 2
  %27 = load i32, i32* %5, align 4
  %28 = add nsw i32 %26, %27
  %29 = load i32, i32* %4, align 4
  %30 = sext i32 %29 to i64
  %31 = getelementptr inbounds [50 x i32], [50 x i32]* %6, i64 0, i64 %30
  store i32 %28, i32* %31, align 4
  %32 = load i32, i32* %4, align 4
  %33 = sext i32 %32 to i64
  %34 = getelementptr inbounds [50 x i32], [50 x i32]* %6, i64 0, i64 %33
  %35 = load i32, i32* %34, align 4
  %36 = sdiv i32 %35, 10
  store i32 %36, i32* %5, align 4
  %37 = load i32, i32* %4, align 4
  %38 = sext i32 %37 to i64
  %39 = getelementptr inbounds [50 x i32], [50 x i32]* %6, i64 0, i64 %38
  %40 = load i32, i32* %39, align 4
  %41 = srem i32 %40, 10
  %42 = load i32, i32* %4, align 4
  %43 = sext i32 %42 to i64
  %44 = getelementptr inbounds [50 x i32], [50 x i32]* %6, i64 0, i64 %43
  store i32 %41, i32* %44, align 4
  br label %45

45:                                               ; preds = %21
  %46 = load i32, i32* %4, align 4
  %47 = add nsw i32 %46, 1
  store i32 %47, i32* %4, align 4
  br label %16

48:                                               ; preds = %16
  br label %49

49:                                               ; preds = %52, %48
  %50 = load i32, i32* %5, align 4
  %51 = icmp sgt i32 %50, 0
  br i1 %51, label %52, label %64

52:                                               ; preds = %49
  %53 = getelementptr inbounds [50 x i32], [50 x i32]* %6, i64 0, i64 0
  %54 = load i32, i32* %53, align 16
  %55 = add nsw i32 %54, 1
  store i32 %55, i32* %53, align 16
  %56 = load i32, i32* %5, align 4
  %57 = srem i32 %56, 10
  %58 = getelementptr inbounds [50 x i32], [50 x i32]* %6, i64 0, i64 0
  %59 = load i32, i32* %58, align 16
  %60 = sext i32 %59 to i64
  %61 = getelementptr inbounds [50 x i32], [50 x i32]* %6, i64 0, i64 %60
  store i32 %57, i32* %61, align 4
  %62 = load i32, i32* %5, align 4
  %63 = sdiv i32 %62, 10
  store i32 %63, i32* %5, align 4
  br label %49

64:                                               ; preds = %49
  br label %65

65:                                               ; preds = %64
  %66 = load i32, i32* %3, align 4
  %67 = add nsw i32 %66, 1
  store i32 %67, i32* %3, align 4
  br label %11

68:                                               ; preds = %11
  %69 = getelementptr inbounds [50 x i32], [50 x i32]* %6, i64 0, i64 0
  %70 = load i32, i32* %69, align 16
  store i32 %70, i32* %3, align 4
  br label %71

71:                                               ; preds = %80, %68
  %72 = load i32, i32* %3, align 4
  %73 = icmp sgt i32 %72, 0
  br i1 %73, label %74, label %83

74:                                               ; preds = %71
  %75 = load i32, i32* %3, align 4
  %76 = sext i32 %75 to i64
  %77 = getelementptr inbounds [50 x i32], [50 x i32]* %6, i64 0, i64 %76
  %78 = load i32, i32* %77, align 4
  %79 = call dereferenceable(272) %"class.std::basic_ostream"* @_ZNSolsEi(%"class.std::basic_ostream"* @_ZSt4cout, i32 %78)
  br label %80

80:                                               ; preds = %74
  %81 = load i32, i32* %3, align 4
  %82 = add nsw i32 %81, -1
  store i32 %82, i32* %3, align 4
  br label %71

83:                                               ; preds = %71
  ret i32 0
}

; Function Attrs: argmemonly nounwind willreturn
declare void @llvm.memset.p0i8.i64(i8* nocapture writeonly, i8, i64, i1 immarg) #5

declare dso_local dereferenceable(280) %"class.std::basic_istream"* @_ZNSirsERi(%"class.std::basic_istream"*, i32* dereferenceable(4)) #1

declare dso_local dereferenceable(272) %"class.std::basic_ostream"* @_ZNSolsEi(%"class.std::basic_ostream"*, i32) #1

; Function Attrs: noinline uwtable
define internal void @_GLOBAL__sub_I_968.cpp() #0 section ".text.startup" {
  call void @__cxx_global_var_init()
  ret void
}


!llvm.module.flags = !{!0}
!llvm.ident = !{!1}

!0 = !{i32 1, !"wchar_size", i32 4}
!1 = !{!"clang version 10.0.0-4ubuntu1 "}
