; ModuleID = 'source-C-CXX/24/968.cpp'
source_filename = "source-C-CXX/24/968.cpp"
target datalayout = "e-m:e-p270:32:32-p271:32:32-p272:64:64-i64:64-f80:128-n8:16:32:64-S128"
target triple = "x86_64-pc-linux-gnu"

%"class.std::ios_base::Init" = type { i8 }
%"class.std::basic_istream" = type { i32 (...)**, i64, %"class.std::basic_ios" }
%"class.std::basic_ios" = type { %"class.std::ios_base", %"class.std::basic_ostream"*, i8, i8, %"class.std::basic_streambuf"*, %"class.std::ctype"*, %"class.std::num_put"*, %"class.std::num_get"* }
%"class.std::ios_base" = type { i32 (...)**, i64, i64, i32, i32, i32, %"struct.std::ios_base::_Callback_list"*, %"struct.std::ios_base::_Words", [8 x %"struct.std::ios_base::_Words"], i32, %"struct.std::ios_base::_Words"*, %"class.std::locale" }
%"struct.std::ios_base::_Callback_list" = type { %"struct.std::ios_base::_Callback_list"*, void (i32, %"class.std::ios_base"*, i32)*, i32, i32 }
%"struct.std::ios_base::_Words" = type { i8*, i64 }
%"class.std::locale" = type { %"class.std::locale::_Impl"* }
%"class.std::locale::_Impl" = type { i32, %"class.std::locale::facet"**, i64, %"class.std::locale::facet"**, i8** }
%"class.std::locale::facet" = type <{ i32 (...)**, i32, [4 x i8] }>
%"class.std::basic_ostream" = type { i32 (...)**, %"class.std::basic_ios" }
%"class.std::basic_streambuf" = type { i32 (...)**, i8*, i8*, i8*, i8*, i8*, i8*, %"class.std::locale" }
%"class.std::ctype" = type <{ %"class.std::locale::facet.base", [4 x i8], %struct.__locale_struct*, i8, [7 x i8], i32*, i32*, i16*, i8, [256 x i8], [256 x i8], i8, [6 x i8] }>
%"class.std::locale::facet.base" = type <{ i32 (...)**, i32 }>
%struct.__locale_struct = type { [13 x %struct.__locale_data*], i16*, i32*, i32*, [13 x i8*] }
%struct.__locale_data = type opaque
%"class.std::num_put" = type { %"class.std::locale::facet.base", [4 x i8] }
%"class.std::num_get" = type { %"class.std::locale::facet.base", [4 x i8] }

@_ZStL8__ioinit = internal global %"class.std::ios_base::Init" zeroinitializer, align 1
@__dso_handle = external hidden global i8
@_ZSt3cin = external global %"class.std::basic_istream", align 8
@_ZSt4cout = external global %"class.std::basic_ostream", align 8
@llvm.global_ctors = appending global [1 x { i32, void ()*, i8* }] [{ i32, void ()*, i8* } { i32 65535, void ()* @_GLOBAL__sub_I_968.cpp, i8* null }]

declare void @_ZNSt8ios_base4InitC1Ev(%"class.std::ios_base::Init"* nonnull align 1 dereferenceable(1)) unnamed_addr #0

; Function Attrs: nounwind
declare void @_ZNSt8ios_base4InitD1Ev(%"class.std::ios_base::Init"* nonnull align 1 dereferenceable(1)) unnamed_addr #1

; Function Attrs: nofree nounwind
declare i32 @__cxa_atexit(void (i8*)*, i8*, i8*) local_unnamed_addr #2

; Function Attrs: mustprogress norecurse sspstrong uwtable
define dso_local i32 @main() local_unnamed_addr #3 {
  %1 = alloca i32, align 4
  %2 = alloca [50 x i32], align 16
  %3 = bitcast i32* %1 to i8*
  call void @llvm.lifetime.start.p0i8(i64 4, i8* nonnull %3) #7
  %4 = bitcast [50 x i32]* %2 to i8*
  call void @llvm.lifetime.start.p0i8(i64 200, i8* nonnull %4) #7
  call void @llvm.memset.p0i8.i64(i8* noundef nonnull align 16 dereferenceable(200) %4, i8 0, i64 200, i1 false)
  %5 = call nonnull align 8 dereferenceable(16) %"class.std::basic_istream"* @_ZNSirsERi(%"class.std::basic_istream"* nonnull align 8 dereferenceable(16) @_ZSt3cin, i32* nonnull align 4 dereferenceable(4) %1)
  %6 = getelementptr inbounds [50 x i32], [50 x i32]* %2, i64 0, i64 0
  store i32 1, i32* %6, align 16, !tbaa !5
  %7 = getelementptr inbounds [50 x i32], [50 x i32]* %2, i64 0, i64 1
  store i32 1, i32* %7, align 4, !tbaa !5
  %8 = load i32, i32* %1, align 4, !tbaa !5
  %9 = icmp slt i32 %8, 1
  br i1 %9, label %53, label %10

10:                                               ; preds = %0, %47
  %11 = phi i32 [ %49, %47 ], [ 1, %0 ]
  %12 = phi i32 [ %48, %47 ], [ 1, %0 ]
  %13 = icmp slt i32 %11, 1
  br i1 %13, label %45, label %14

14:                                               ; preds = %10
  %15 = add nuw i32 %11, 1
  %16 = zext i32 %15 to i64
  br label %25

17:                                               ; preds = %25
  %18 = icmp sgt i32 %31, 9
  br i1 %18, label %19, label %45

19:                                               ; preds = %17
  %20 = add nsw i32 %11, 1
  store i32 %20, i32* %6, align 16, !tbaa !5
  %21 = urem i32 %32, 10
  %22 = sext i32 %20 to i64
  %23 = getelementptr inbounds [50 x i32], [50 x i32]* %2, i64 0, i64 %22
  store i32 %21, i32* %23, align 4, !tbaa !5
  %24 = icmp ult i32 %32, 10
  br i1 %24, label %45, label %36, !llvm.loop !9

25:                                               ; preds = %14, %25
  %26 = phi i64 [ 1, %14 ], [ %34, %25 ]
  %27 = phi i32 [ 0, %14 ], [ %32, %25 ]
  %28 = getelementptr inbounds [50 x i32], [50 x i32]* %2, i64 0, i64 %26
  %29 = load i32, i32* %28, align 4, !tbaa !5
  %30 = shl nsw i32 %29, 1
  %31 = add nsw i32 %30, %27
  %32 = sdiv i32 %31, 10
  %33 = srem i32 %31, 10
  store i32 %33, i32* %28, align 4, !tbaa !5
  %34 = add nuw nsw i64 %26, 1
  %35 = icmp eq i64 %34, %16
  br i1 %35, label %17, label %25, !llvm.loop !11

36:                                               ; preds = %19, %36
  %37 = phi i32 [ %38, %36 ], [ %32, %19 ]
  %38 = udiv i32 %37, 10
  %39 = load i32, i32* %6, align 16, !tbaa !5
  %40 = add nsw i32 %39, 1
  store i32 %40, i32* %6, align 16, !tbaa !5
  %41 = urem i32 %38, 10
  %42 = sext i32 %40 to i64
  %43 = getelementptr inbounds [50 x i32], [50 x i32]* %2, i64 0, i64 %42
  store i32 %41, i32* %43, align 4, !tbaa !5
  %44 = icmp ult i32 %37, 100
  br i1 %44, label %45, label %36, !llvm.loop !9

45:                                               ; preds = %36, %19, %10, %17
  %46 = icmp eq i32 %12, %8
  br i1 %46, label %50, label %47, !llvm.loop !12

47:                                               ; preds = %45
  %48 = add nuw i32 %12, 1
  %49 = load i32, i32* %6, align 16, !tbaa !5
  br label %10

50:                                               ; preds = %45
  %51 = load i32, i32* %6, align 16, !tbaa !5
  %52 = icmp sgt i32 %51, 0
  br i1 %52, label %53, label %63

53:                                               ; preds = %0, %50
  %54 = phi i32 [ %51, %50 ], [ 1, %0 ]
  %55 = zext i32 %54 to i64
  br label %56

56:                                               ; preds = %53, %56
  %57 = phi i64 [ %55, %53 ], [ %62, %56 ]
  %58 = getelementptr inbounds [50 x i32], [50 x i32]* %2, i64 0, i64 %57
  %59 = load i32, i32* %58, align 4, !tbaa !5
  %60 = call nonnull align 8 dereferenceable(8) %"class.std::basic_ostream"* @_ZNSolsEi(%"class.std::basic_ostream"* nonnull align 8 dereferenceable(8) @_ZSt4cout, i32 %59)
  %61 = icmp sgt i64 %57, 1
  %62 = add nsw i64 %57, -1
  br i1 %61, label %56, label %63, !llvm.loop !13

63:                                               ; preds = %56, %50
  call void @llvm.lifetime.end.p0i8(i64 200, i8* nonnull %4) #7
  call void @llvm.lifetime.end.p0i8(i64 4, i8* nonnull %3) #7
  ret i32 0
}

; Function Attrs: argmemonly mustprogress nofree nosync nounwind willreturn
declare void @llvm.lifetime.start.p0i8(i64 immarg, i8* nocapture) #4

; Function Attrs: argmemonly mustprogress nofree nounwind willreturn writeonly
declare void @llvm.memset.p0i8.i64(i8* nocapture writeonly, i8, i64, i1 immarg) #5

declare nonnull align 8 dereferenceable(16) %"class.std::basic_istream"* @_ZNSirsERi(%"class.std::basic_istream"* nonnull align 8 dereferenceable(16), i32* nonnull align 4 dereferenceable(4)) local_unnamed_addr #0

declare nonnull align 8 dereferenceable(8) %"class.std::basic_ostream"* @_ZNSolsEi(%"class.std::basic_ostream"* nonnull align 8 dereferenceable(8), i32) local_unnamed_addr #0

; Function Attrs: argmemonly mustprogress nofree nosync nounwind willreturn
declare void @llvm.lifetime.end.p0i8(i64 immarg, i8* nocapture) #4

; Function Attrs: sspstrong uwtable
define internal void @_GLOBAL__sub_I_968.cpp() #6 section ".text.startup" {
  tail call void @_ZNSt8ios_base4InitC1Ev(%"class.std::ios_base::Init"* nonnull align 1 dereferenceable(1) @_ZStL8__ioinit)
  %1 = tail call i32 @__cxa_atexit(void (i8*)* bitcast (void (%"class.std::ios_base::Init"*)* @_ZNSt8ios_base4InitD1Ev to void (i8*)*), i8* getelementptr inbounds (%"class.std::ios_base::Init", %"class.std::ios_base::Init"* @_ZStL8__ioinit, i64 0, i32 0), i8* nonnull @__dso_handle) #7
  ret void
}


!llvm.module.flags = !{!0, !1, !2, !3}
!llvm.ident = !{!4}

!0 = !{i32 1, !"wchar_size", i32 4}
!1 = !{i32 7, !"PIC Level", i32 2}
!2 = !{i32 7, !"PIE Level", i32 2}
!3 = !{i32 7, !"uwtable", i32 1}
!4 = !{!"clang version 13.0.0"}
!5 = !{!6, !6, i64 0}
!6 = !{!"int", !7, i64 0}
!7 = !{!"omnipotent char", !8, i64 0}
!8 = !{!"Simple C++ TBAA"}
!9 = distinct !{!9, !10}
!10 = !{!"llvm.loop.mustprogress"}
!11 = distinct !{!11, !10}
!12 = distinct !{!12, !10}
!13 = distinct !{!13, !10}
